(dp0
S'username'
p1
S'Alexlebg'
p2
sS'city'
p3
S'Rouanne'
p4
sS'useremail'
p5
S'alexisgeorges@gmail.com'
p6
sS'postal'
p7
S'02587'
p8
sS'firstname'
p9
S'Alexis'
p10
sS'lastname'
p11
S'Georges'
p12
sS'address'
p13
S'eazkjeazope'
p14
sS'birthdate'
p15
S'Facultatif'
p16
sS'userpwd2'
p17
S'Alexis1998'
p18
sS'userpwd'
p19
S'f9f9bfd59e90ad0958b28962dc23b41d26b33e45529dd5d23d68a10810530a1bcc869c0520bb8c4b4f2f5be21d7730adb6d8af151a3027fb5b7ddce001270c26'
p20
sS'country'
p21
S'Belgique'
p22
s.